; Function Attrs: nounwind uwtable
define ptr @H5FA_open(ptr noundef %0, i64 noundef %1, ptr noundef %2) local_unnamed_addr #0 {
  %4 = load i8, ptr @H5FA_init_g, align 1, !tbaa !3, !range !7, !noundef !8
  %5 = trunc nuw i8 %4 to i1
  %6 = load i8, ptr @H5_libterm_g, align 1, !range !7
  %7 = trunc nuw i8 %6 to i1
  %8 = select i1 %5, i1 true, i1 %7
  br i1 %8, label %9, label %.thread, !prof !9

.thread:                                          ; preds = %3
  store i8 1, ptr @H5FA_init_g, align 1, !tbaa !3
  br label %12

9:                                                ; preds = %3
  %10 = xor i1 %7, true
  %11 = select i1 %5, i1 true, i1 %10
  br i1 %11, label %12, label %19, !prof !10

12:                                               ; preds = %.thread, %9
  %13 = tail call fastcc ptr @H5FA__new(ptr noundef %0, i64 noundef %1, i1 noundef zeroext true, ptr noundef %2)
  %14 = icmp eq ptr %13, null
  br i1 %14, label %15, label %19

15:                                               ; preds = %12
  %16 = load i64, ptr @H5E_FARRAY_g, align 8, !tbaa !11
  %17 = load i64, ptr @H5E_CANTINIT_g, align 8, !tbaa !11
  %18 = tail call i32 (ptr, ptr, i32, i64, i64, ptr, ...) @H5E_printf_stack(ptr noundef nonnull @.str.1, ptr noundef nonnull @__func__.H5FA_open, i32 noundef 224, i64 noundef %16, i64 noundef %17, ptr noundef nonnull @.str.3) #5
  br label %19

19:                                               ; preds = %15, %12, %9
  %.0 = phi ptr [ null, %9 ], [ %13, %12 ], [ null, %15 ]
  ret ptr %.0
}